target datalayout = "e-m:e-p270:32:32-p271:32:32-p272:64:64-i64:64-i128:128-f80:128-n8:16:32:64-S128"
target triple = "x86_64-pc-linux-gnu"

%struct.cbs_st = type { ptr, i64 }

; Function Attrs: nounwind uwtable
define internal i32 @is_string_type(i32 noundef %0) #0 {
  %2 = alloca i32, align 4
  %3 = alloca i32, align 4
  store i32 %0, ptr %3, align 4, !tbaa !20
  %4 = load i32, ptr %3, align 4, !tbaa !20
  %5 = and i32 %4, 192
  %6 = icmp ne i32 %5, 0
  br i1 %6, label %7, label %8

7:                                                ; preds = %1
  store i32 0, ptr %2, align 4
  br label %13

8:                                                ; preds = %1
  %9 = load i32, ptr %3, align 4, !tbaa !20
  %10 = and i32 %9, 31
  switch i32 %10, label %12 [
    i32 3, label %11
    i32 4, label %11
    i32 12, label %11
    i32 18, label %11
    i32 19, label %11
    i32 20, label %11
    i32 21, label %11
    i32 22, label %11
    i32 25, label %11
    i32 26, label %11
    i32 27, label %11
    i32 28, label %11
    i32 30, label %11
  ]

11:                                               ; preds = %8, %8, %8, %8, %8, %8, %8, %8, %8, %8, %8, %8, %8
  store i32 1, ptr %2, align 4
  br label %13

12:                                               ; preds = %8
  store i32 0, ptr %2, align 4
  br label %13

13:                                               ; preds = %12, %11, %7
  %14 = load i32, ptr %2, align 4
  ret i32 %14
}

; Function Attrs: nounwind uwtable
define internal i32 @cbs_find_ber(ptr noundef %0, ptr noundef %1, i32 noundef %2) #0 {
  %4 = alloca i32, align 4
  %5 = alloca ptr, align 8
  %6 = alloca ptr, align 8
  %7 = alloca i32, align 4
  %8 = alloca %struct.cbs_st, align 8
  %9 = alloca i32, align 4
  %10 = alloca %struct.cbs_st, align 8
  %11 = alloca i32, align 4
  %12 = alloca i64, align 8
  store ptr %0, ptr %5, align 8, !tbaa !6
  store ptr %1, ptr %6, align 8, !tbaa !16
  store i32 %2, ptr %7, align 4, !tbaa !20
  call void @llvm.lifetime.start.p0(i64 16, ptr %8) #4
  %13 = load i32, ptr %7, align 4, !tbaa !20
  %14 = icmp ugt i32 %13, 2048
  br i1 %14, label %15, label %16

15:                                               ; preds = %3
  store i32 0, ptr %4, align 4
  store i32 1, ptr %9, align 4
  br label %73

16:                                               ; preds = %3
  %17 = load ptr, ptr %5, align 8, !tbaa !6
  %18 = call ptr @CBS_data(ptr noundef %17)
  %19 = load ptr, ptr %5, align 8, !tbaa !6
  %20 = call i64 @CBS_len(ptr noundef %19)
  call void @CBS_init(ptr noundef %8, ptr noundef %18, i64 noundef %20)
  %21 = load ptr, ptr %6, align 8, !tbaa !16
  store i8 0, ptr %21, align 1, !tbaa !15
  br label %22

22:                                               ; preds = %71, %16
  %23 = call i64 @CBS_len(ptr noundef %8)
  %24 = icmp ugt i64 %23, 0
  br i1 %24, label %25, label %72

25:                                               ; preds = %22
  call void @llvm.lifetime.start.p0(i64 16, ptr %10) #4
  call void @llvm.lifetime.start.p0(i64 4, ptr %11) #4
  call void @llvm.lifetime.start.p0(i64 8, ptr %12) #4
  %26 = call i32 @CBS_get_any_ber_asn1_element(ptr noundef %8, ptr noundef %10, ptr noundef %11, ptr noundef %12)
  %27 = icmp ne i32 %26, 0
  br i1 %27, label %29, label %28

28:                                               ; preds = %25
  store i32 0, ptr %4, align 4
  store i32 1, ptr %9, align 4
  br label %69

29:                                               ; preds = %25
  %30 = call i64 @CBS_len(ptr noundef %10)
  %31 = load i64, ptr %12, align 8, !tbaa !18
  %32 = icmp eq i64 %30, %31
  br i1 %32, label %33, label %46

33:                                               ; preds = %29
  %34 = load i64, ptr %12, align 8, !tbaa !18
  %35 = icmp ugt i64 %34, 0
  br i1 %35, label %36, label %46

36:                                               ; preds = %33
  %37 = call ptr @CBS_data(ptr noundef %10)
  %38 = load i64, ptr %12, align 8, !tbaa !18
  %39 = sub i64 %38, 1
  %40 = getelementptr inbounds nuw i8, ptr %37, i64 %39
  %41 = load i8, ptr %40, align 1, !tbaa !15
  %42 = zext i8 %41 to i32
  %43 = icmp eq i32 %42, 128
  br i1 %43, label %44, label %46

44:                                               ; preds = %36
  %45 = load ptr, ptr %6, align 8, !tbaa !16
  store i8 1, ptr %45, align 1, !tbaa !15
  store i32 1, ptr %4, align 4
  store i32 1, ptr %9, align 4
  br label %69

46:                                               ; preds = %36, %33, %29
  %47 = load i32, ptr %11, align 4, !tbaa !20
  %48 = and i32 %47, 32
  %49 = icmp ne i32 %48, 0
  br i1 %49, label %50, label %68

50:                                               ; preds = %46
  %51 = load i32, ptr %11, align 4, !tbaa !20
  %52 = call i32 @is_string_type(i32 noundef %51)
  %53 = icmp ne i32 %52, 0
  br i1 %53, label %54, label %56

54:                                               ; preds = %50
  %55 = load ptr, ptr %6, align 8, !tbaa !16
  store i8 1, ptr %55, align 1, !tbaa !15
  store i32 1, ptr %4, align 4
  store i32 1, ptr %9, align 4
  br label %69

56:                                               ; preds = %50
  %57 = load i64, ptr %12, align 8, !tbaa !18
  %58 = call i32 @CBS_skip(ptr noundef %10, i64 noundef %57)
  %59 = icmp ne i32 %58, 0
  br i1 %59, label %60, label %66

60:                                               ; preds = %56
  %61 = load ptr, ptr %6, align 8, !tbaa !16
  %62 = load i32, ptr %7, align 4, !tbaa !20
  %63 = add i32 %62, 1
  %64 = call i32 @cbs_find_ber(ptr noundef %10, ptr noundef %61, i32 noundef %63)
  %65 = icmp ne i32 %64, 0
  br i1 %65, label %67, label %66

66:                                               ; preds = %60, %56
  store i32 0, ptr %4, align 4
  store i32 1, ptr %9, align 4
  br label %69

67:                                               ; preds = %60
  br label %68

68:                                               ; preds = %67, %46
  store i32 0, ptr %9, align 4
  br label %69

69:                                               ; preds = %68, %66, %54, %44, %28
  call void @llvm.lifetime.end.p0(i64 8, ptr %12) #4
  call void @llvm.lifetime.end.p0(i64 4, ptr %11) #4
  call void @llvm.lifetime.end.p0(i64 16, ptr %10) #4
  %70 = load i32, ptr %9, align 4
  switch i32 %70, label %73 [
    i32 0, label %71
  ]

71:                                               ; preds = %69
  br label %22, !llvm.loop !22

72:                                               ; preds = %22
  store i32 1, ptr %4, align 4
  store i32 1, ptr %9, align 4
  br label %73

73:                                               ; preds = %72, %69, %15
  call void @llvm.lifetime.end.p0(i64 16, ptr %8) #4
  %74 = load i32, ptr %4, align 4
  ret i32 %74
}