; Function Attrs: nounwind uwtable
define internal fastcc range(i32 0, 2) i32 @cbs_find_ber(ptr noundef %0, ptr noundef nonnull writeonly captures(none) %1, i32 noundef %2) unnamed_addr #0 {
  %4 = alloca %struct.cbs_st, align 8
  %5 = alloca %struct.cbs_st, align 8
  %6 = alloca i32, align 4
  %7 = alloca i64, align 8
  call void @llvm.lifetime.start.p0(i64 16, ptr nonnull %4) #4
  %8 = icmp ugt i32 %2, 2048
  br i1 %8, label %.loopexit, label %9

9:                                                ; preds = %3
  %10 = tail call ptr @CBS_data(ptr noundef %0) #4
  %11 = tail call i64 @CBS_len(ptr noundef %0) #4
  call void @CBS_init(ptr noundef nonnull %4, ptr noundef %10, i64 noundef %11) #4
  store i8 0, ptr %1, align 1, !tbaa !6
  %12 = call i64 @CBS_len(ptr noundef nonnull %4) #4
  %.not21 = icmp eq i64 %12, 0
  br i1 %.not21, label %.loopexit, label %.lr.ph

.lr.ph:                                           ; preds = %9
  %13 = add nuw nsw i32 %2, 1
  br label %14

14:                                               ; preds = %.lr.ph, %40
  call void @llvm.lifetime.start.p0(i64 16, ptr nonnull %5) #4
  call void @llvm.lifetime.start.p0(i64 4, ptr nonnull %6) #4
  call void @llvm.lifetime.start.p0(i64 8, ptr nonnull %7) #4
  %15 = call i32 @CBS_get_any_ber_asn1_element(ptr noundef nonnull %4, ptr noundef nonnull %5, ptr noundef nonnull %6, ptr noundef nonnull %7) #4
  %.not12 = icmp eq i32 %15, 0
  br i1 %.not12, label %.thread, label %16

16:                                               ; preds = %14
  %17 = call i64 @CBS_len(ptr noundef nonnull %5) #4
  %18 = load i64, ptr %7, align 8, !tbaa !12
  %19 = icmp eq i64 %17, %18
  %20 = icmp ne i64 %18, 0
  %or.cond = and i1 %19, %20
  br i1 %or.cond, label %21, label %28

21:                                               ; preds = %16
  %22 = call ptr @CBS_data(ptr noundef nonnull %5) #4
  %23 = load i64, ptr %7, align 8, !tbaa !12
  %24 = getelementptr i8, ptr %22, i64 %23
  %25 = getelementptr i8, ptr %24, i64 -1
  %26 = load i8, ptr %25, align 1, !tbaa !6
  %27 = icmp eq i8 %26, -128
  br i1 %27, label %.thread.sink.split, label %28

28:                                               ; preds = %21, %16
  %29 = phi i64 [ %23, %21 ], [ %18, %16 ]
  %30 = load i32, ptr %6, align 4, !tbaa !14
  %31 = and i32 %30, 32
  %.not13 = icmp eq i32 %31, 0
  br i1 %.not13, label %40, label %32

32:                                               ; preds = %28
  %33 = and i32 %30, 192
  %.not.i = icmp eq i32 %33, 0
  br i1 %.not.i, label %34, label %36

34:                                               ; preds = %32
  %35 = and i32 %30, 31
  switch i32 %35, label %36 [
    i32 3, label %.thread.sink.split
    i32 4, label %.thread.sink.split
    i32 12, label %.thread.sink.split
    i32 18, label %.thread.sink.split
    i32 19, label %.thread.sink.split
    i32 20, label %.thread.sink.split
    i32 21, label %.thread.sink.split
    i32 22, label %.thread.sink.split
    i32 25, label %.thread.sink.split
    i32 26, label %.thread.sink.split
    i32 27, label %.thread.sink.split
    i32 28, label %.thread.sink.split
    i32 30, label %.thread.sink.split
  ]

36:                                               ; preds = %34, %32
  %37 = call i32 @CBS_skip(ptr noundef nonnull %5, i64 noundef %29) #4
  %.not15 = icmp eq i32 %37, 0
  br i1 %.not15, label %.thread, label %38

38:                                               ; preds = %36
  %39 = call fastcc i32 @cbs_find_ber(ptr noundef nonnull %5, ptr noundef %1, i32 noundef %13)
  %.not16 = icmp eq i32 %39, 0
  br i1 %.not16, label %.thread, label %40

.thread.sink.split:                               ; preds = %34, %34, %34, %34, %34, %34, %34, %34, %34, %34, %34, %34, %34, %21
  store i8 1, ptr %1, align 1, !tbaa !6
  br label %.thread

.thread:                                          ; preds = %14, %38, %36, %.thread.sink.split
  %.2.ph = phi i32 [ 1, %.thread.sink.split ], [ 0, %36 ], [ 0, %38 ], [ 0, %14 ]
  call void @llvm.lifetime.end.p0(i64 8, ptr nonnull %7) #4
  call void @llvm.lifetime.end.p0(i64 4, ptr nonnull %6) #4
  call void @llvm.lifetime.end.p0(i64 16, ptr nonnull %5) #4
  br label %.loopexit

40:                                               ; preds = %28, %38
  call void @llvm.lifetime.end.p0(i64 8, ptr nonnull %7) #4
  call void @llvm.lifetime.end.p0(i64 4, ptr nonnull %6) #4
  call void @llvm.lifetime.end.p0(i64 16, ptr nonnull %5) #4
  %41 = call i64 @CBS_len(ptr noundef nonnull %4) #4
  %.not = icmp eq i64 %41, 0
  br i1 %.not, label %.loopexit, label %14, !llvm.loop !16

.loopexit:                                        ; preds = %40, %9, %.thread, %3
  %.010 = phi i32 [ 0, %3 ], [ %.2.ph, %.thread ], [ 1, %9 ], [ 1, %40 ]
  call void @llvm.lifetime.end.p0(i64 16, ptr nonnull %4) #4
  ret i32 %.010
}